(dp0
S'CIDEr'
p1
cnumpy.core.multiarray
scalar
p2
(cnumpy
dtype
p3
(S'f8'
p4
I0
I1
tp5
Rp6
(I3
S'<'
p7
NNNI-1
I-1
I0
tp8
bS'<Jvmn\x04\xfb?'
p9
tp10
Rp11
sS'Bleu_4'
p12
F0.15000448129664762
sS'Bleu_3'
p13
F0.22983696777341814
sS'Bleu_2'
p14
F0.34360196196802173
sS'Bleu_1'
p15
F0.47532260246580005
sS'ROUGE_L'
p16
g2
(g6
S'\xd6\x94\x990\xc6{\xdd?'
p17
tp18
Rp19
sS'METEOR'
p20
F0.20843811525041228
s.