(dp0
S'CIDEr'
p1
cnumpy.core.multiarray
scalar
p2
(cnumpy
dtype
p3
(S'f8'
p4
I0
I1
tp5
Rp6
(I3
S'<'
p7
NNNI-1
I-1
I0
tp8
bS'\x97\xa6\xdf=i\xb4\xf7?'
p9
tp10
Rp11
sS'Bleu_4'
p12
F0.12984512190276268
sS'Bleu_3'
p13
F0.20831170285207998
sS'Bleu_2'
p14
F0.3218104479138028
sS'Bleu_1'
p15
F0.4502853986374102
sS'ROUGE_L'
p16
g2
(g6
S'\x01\xfdA9\xaa\x12\xdc?'
p17
tp18
Rp19
sS'METEOR'
p20
F0.20745836467616213
s.