(dp0
S'CIDEr'
p1
cnumpy.core.multiarray
scalar
p2
(cnumpy
dtype
p3
(S'f8'
p4
I0
I1
tp5
Rp6
(I3
S'<'
p7
NNNI-1
I-1
I0
tp8
bS'\x9dJ\x92\xe5\x8c>\xfc?'
p9
tp10
Rp11
sS'Bleu_4'
p12
F0.15715380528217018
sS'Bleu_3'
p13
F0.2378964563835858
sS'Bleu_2'
p14
F0.35124142628715993
sS'Bleu_1'
p15
F0.4778556404858592
sS'ROUGE_L'
p16
g2
(g6
S'\xbf\rH\x12 \xb5\xdd?'
p17
tp18
Rp19
sS'METEOR'
p20
F0.21196635796494132
s.